
hello_test.elf:     file format elf32-littleriscv


Disassembly of section .vectors:

00000000 <_vectors_start>:
   0:	3200006f          	j	320 <default_exc_handler>
   4:	31c0006f          	j	320 <default_exc_handler>
   8:	3180006f          	j	320 <default_exc_handler>
   c:	3140006f          	j	320 <default_exc_handler>
  10:	3100006f          	j	320 <default_exc_handler>
  14:	30c0006f          	j	320 <default_exc_handler>
  18:	3080006f          	j	320 <default_exc_handler>
  1c:	3080006f          	j	324 <timer_handler>
  20:	3000006f          	j	320 <default_exc_handler>
  24:	2fc0006f          	j	320 <default_exc_handler>
  28:	2f80006f          	j	320 <default_exc_handler>
  2c:	2f40006f          	j	320 <default_exc_handler>
  30:	2f00006f          	j	320 <default_exc_handler>
  34:	2ec0006f          	j	320 <default_exc_handler>
  38:	2e80006f          	j	320 <default_exc_handler>
  3c:	2e40006f          	j	320 <default_exc_handler>
  40:	2e00006f          	j	320 <default_exc_handler>
  44:	2dc0006f          	j	320 <default_exc_handler>
  48:	2d80006f          	j	320 <default_exc_handler>
  4c:	2d40006f          	j	320 <default_exc_handler>
  50:	2d00006f          	j	320 <default_exc_handler>
  54:	2cc0006f          	j	320 <default_exc_handler>
  58:	2c80006f          	j	320 <default_exc_handler>
  5c:	2c40006f          	j	320 <default_exc_handler>
  60:	2c00006f          	j	320 <default_exc_handler>
  64:	2bc0006f          	j	320 <default_exc_handler>
  68:	2b80006f          	j	320 <default_exc_handler>
  6c:	2b40006f          	j	320 <default_exc_handler>
  70:	2b00006f          	j	320 <default_exc_handler>
  74:	2ac0006f          	j	320 <default_exc_handler>
  78:	2a80006f          	j	320 <default_exc_handler>
  7c:	0000                	unimp
  7e:	0000                	unimp
  80:	2a80006f          	j	328 <reset_handler>

Disassembly of section .text:

00000084 <put_char>:
  84:	0ff57713          	andi	a4,a0,255
  88:	002007b7          	lui	a5,0x200
  8c:	00e7a023          	sw	a4,0(a5) # 200000 <_stack_start+0x100000>
  90:	00008067          	ret

00000094 <put_str>:
  94:	00200737          	lui	a4,0x200
  98:	00054783          	lbu	a5,0(a0)
  9c:	00079663          	bnez	a5,a8 <put_str+0x14>
  a0:	00000513          	li	a0,0
  a4:	00008067          	ret
  a8:	00150513          	addi	a0,a0,1
  ac:	00f72023          	sw	a5,0(a4) # 200000 <_stack_start+0x100000>
  b0:	fe9ff06f          	j	98 <put_str+0x4>

000000b4 <put_hex>:
  b4:	00800713          	li	a4,8
  b8:	00900613          	li	a2,9
  bc:	002006b7          	lui	a3,0x200
  c0:	01c55793          	srli	a5,a0,0x1c
  c4:	00f66e63          	bltu	a2,a5,e0 <put_hex+0x2c>
  c8:	03078793          	addi	a5,a5,48
  cc:	00f6a023          	sw	a5,0(a3) # 200000 <_stack_start+0x100000>
  d0:	fff70713          	addi	a4,a4,-1
  d4:	00451513          	slli	a0,a0,0x4
  d8:	fe0714e3          	bnez	a4,c0 <put_hex+0xc>
  dc:	00008067          	ret
  e0:	03778793          	addi	a5,a5,55
  e4:	fe9ff06f          	j	cc <put_hex+0x18>

000000e8 <sim_halt>:
  e8:	002007b7          	lui	a5,0x200
  ec:	00100713          	li	a4,1
  f0:	00e7a423          	sw	a4,8(a5) # 200008 <_stack_start+0x100008>
  f4:	00008067          	ret

000000f8 <get_mepc>:
  f8:	34102573          	csrr	a0,mepc
  fc:	00008067          	ret

00000100 <get_mcause>:
 100:	34202573          	csrr	a0,mcause
 104:	00008067          	ret

00000108 <get_mtval>:
 108:	34302573          	csrr	a0,mtval
 10c:	00008067          	ret

00000110 <simple_exc_handler>:
 110:	ff010113          	addi	sp,sp,-16
 114:	00000517          	auipc	a0,0x0
 118:	33050513          	addi	a0,a0,816 # 444 <main+0x5c>
 11c:	00112623          	sw	ra,12(sp)
 120:	f75ff0ef          	jal	ra,94 <put_str>
 124:	00000517          	auipc	a0,0x0
 128:	33050513          	addi	a0,a0,816 # 454 <main+0x6c>
 12c:	f69ff0ef          	jal	ra,94 <put_str>
 130:	00000517          	auipc	a0,0x0
 134:	33450513          	addi	a0,a0,820 # 464 <main+0x7c>
 138:	f5dff0ef          	jal	ra,94 <put_str>
 13c:	34102573          	csrr	a0,mepc
 140:	f75ff0ef          	jal	ra,b4 <put_hex>
 144:	00000517          	auipc	a0,0x0
 148:	32c50513          	addi	a0,a0,812 # 470 <main+0x88>
 14c:	f49ff0ef          	jal	ra,94 <put_str>
 150:	34202573          	csrr	a0,mcause
 154:	f61ff0ef          	jal	ra,b4 <put_hex>
 158:	00000517          	auipc	a0,0x0
 15c:	32450513          	addi	a0,a0,804 # 47c <main+0x94>
 160:	f35ff0ef          	jal	ra,94 <put_str>
 164:	34302573          	csrr	a0,mtval
 168:	f4dff0ef          	jal	ra,b4 <put_hex>
 16c:	002007b7          	lui	a5,0x200
 170:	00a00713          	li	a4,10
 174:	00e7a023          	sw	a4,0(a5) # 200000 <_stack_start+0x100000>
 178:	00100713          	li	a4,1
 17c:	00e7a423          	sw	a4,8(a5)
 180:	0000006f          	j	180 <simple_exc_handler+0x70>

00000184 <timer_read>:
 184:	003007b7          	lui	a5,0x300
 188:	0047a703          	lw	a4,4(a5) # 300004 <_stack_start+0x200004>
 18c:	0007a503          	lw	a0,0(a5)
 190:	0047a583          	lw	a1,4(a5)
 194:	fee59ae3          	bne	a1,a4,188 <timer_read+0x4>
 198:	00008067          	ret

0000019c <timecmp_update>:
 19c:	003007b7          	lui	a5,0x300
 1a0:	fff00713          	li	a4,-1
 1a4:	00e7a423          	sw	a4,8(a5) # 300008 <_stack_start+0x200008>
 1a8:	00b7a623          	sw	a1,12(a5)
 1ac:	00a7a423          	sw	a0,8(a5)
 1b0:	00008067          	ret

000001b4 <simple_timer_handler>:
 1b4:	fb010113          	addi	sp,sp,-80
 1b8:	02a12a23          	sw	a0,52(sp)
 1bc:	00000517          	auipc	a0,0x0
 1c0:	2cc50513          	addi	a0,a0,716 # 488 <main+0xa0>
 1c4:	02c12623          	sw	a2,44(sp)
 1c8:	01012e23          	sw	a6,28(sp)
 1cc:	01112c23          	sw	a7,24(sp)
 1d0:	04112623          	sw	ra,76(sp)
 1d4:	04512423          	sw	t0,72(sp)
 1d8:	04612223          	sw	t1,68(sp)
 1dc:	04712023          	sw	t2,64(sp)
 1e0:	02d12423          	sw	a3,40(sp)
 1e4:	02e12223          	sw	a4,36(sp)
 1e8:	01c12a23          	sw	t3,20(sp)
 1ec:	01d12823          	sw	t4,16(sp)
 1f0:	01e12623          	sw	t5,12(sp)
 1f4:	01f12423          	sw	t6,8(sp)
 1f8:	02812e23          	sw	s0,60(sp)
 1fc:	02912c23          	sw	s1,56(sp)
 200:	02b12823          	sw	a1,48(sp)
 204:	02f12023          	sw	a5,32(sp)
 208:	e8dff0ef          	jal	ra,94 <put_str>
 20c:	4d000793          	li	a5,1232
 210:	0007a403          	lw	s0,0(a5)
 214:	0047a483          	lw	s1,4(a5)
 218:	f6dff0ef          	jal	ra,184 <timer_read>
 21c:	00a40533          	add	a0,s0,a0
 220:	00853433          	sltu	s0,a0,s0
 224:	00b485b3          	add	a1,s1,a1
 228:	00b405b3          	add	a1,s0,a1
 22c:	f71ff0ef          	jal	ra,19c <timecmp_update>
 230:	4c800593          	li	a1,1224
 234:	0005a803          	lw	a6,0(a1)
 238:	0045a883          	lw	a7,4(a1)
 23c:	03c12403          	lw	s0,60(sp)
 240:	00180513          	addi	a0,a6,1
 244:	01053633          	sltu	a2,a0,a6
 248:	011607b3          	add	a5,a2,a7
 24c:	00a5a023          	sw	a0,0(a1)
 250:	00f5a223          	sw	a5,4(a1)
 254:	04c12083          	lw	ra,76(sp)
 258:	04812283          	lw	t0,72(sp)
 25c:	04412303          	lw	t1,68(sp)
 260:	04012383          	lw	t2,64(sp)
 264:	03812483          	lw	s1,56(sp)
 268:	03412503          	lw	a0,52(sp)
 26c:	03012583          	lw	a1,48(sp)
 270:	02c12603          	lw	a2,44(sp)
 274:	02812683          	lw	a3,40(sp)
 278:	02412703          	lw	a4,36(sp)
 27c:	02012783          	lw	a5,32(sp)
 280:	01c12803          	lw	a6,28(sp)
 284:	01812883          	lw	a7,24(sp)
 288:	01412e03          	lw	t3,20(sp)
 28c:	01012e83          	lw	t4,16(sp)
 290:	00c12f03          	lw	t5,12(sp)
 294:	00812f83          	lw	t6,8(sp)
 298:	05010113          	addi	sp,sp,80
 29c:	30200073          	mret

000002a0 <timer_enable>:
 2a0:	ff010113          	addi	sp,sp,-16
 2a4:	00112623          	sw	ra,12(sp)
 2a8:	00812423          	sw	s0,8(sp)
 2ac:	00912223          	sw	s1,4(sp)
 2b0:	00000693          	li	a3,0
 2b4:	4c800793          	li	a5,1224
 2b8:	00d7a023          	sw	a3,0(a5)
 2bc:	00000713          	li	a4,0
 2c0:	00e7a223          	sw	a4,4(a5)
 2c4:	4d000793          	li	a5,1232
 2c8:	00050413          	mv	s0,a0
 2cc:	00058493          	mv	s1,a1
 2d0:	00a7a023          	sw	a0,0(a5)
 2d4:	00b7a223          	sw	a1,4(a5)
 2d8:	eadff0ef          	jal	ra,184 <timer_read>
 2dc:	00a40533          	add	a0,s0,a0
 2e0:	00853433          	sltu	s0,a0,s0
 2e4:	00b485b3          	add	a1,s1,a1
 2e8:	00b405b3          	add	a1,s0,a1
 2ec:	eb1ff0ef          	jal	ra,19c <timecmp_update>
 2f0:	08000793          	li	a5,128
 2f4:	3047a073          	csrs	mie,a5
 2f8:	00800793          	li	a5,8
 2fc:	3007a073          	csrs	mstatus,a5
 300:	00c12083          	lw	ra,12(sp)
 304:	00812403          	lw	s0,8(sp)
 308:	00412483          	lw	s1,4(sp)
 30c:	01010113          	addi	sp,sp,16
 310:	00008067          	ret

00000314 <timer_disable>:
 314:	08000793          	li	a5,128
 318:	3047b073          	csrc	mie,a5
 31c:	00008067          	ret

00000320 <default_exc_handler>:
 320:	df1ff06f          	j	110 <simple_exc_handler>

00000324 <timer_handler>:
 324:	e91ff06f          	j	1b4 <simple_timer_handler>

00000328 <reset_handler>:
 328:	00000093          	li	ra,0
 32c:	00008113          	mv	sp,ra
 330:	00008193          	mv	gp,ra
 334:	00008213          	mv	tp,ra
 338:	00008293          	mv	t0,ra
 33c:	00008313          	mv	t1,ra
 340:	00008393          	mv	t2,ra
 344:	00008413          	mv	s0,ra
 348:	00008493          	mv	s1,ra
 34c:	00008513          	mv	a0,ra
 350:	00008593          	mv	a1,ra
 354:	00008613          	mv	a2,ra
 358:	00008693          	mv	a3,ra
 35c:	00008713          	mv	a4,ra
 360:	00008793          	mv	a5,ra
 364:	00008813          	mv	a6,ra
 368:	00008893          	mv	a7,ra
 36c:	00008913          	mv	s2,ra
 370:	00008993          	mv	s3,ra
 374:	00008a13          	mv	s4,ra
 378:	00008a93          	mv	s5,ra
 37c:	00008b13          	mv	s6,ra
 380:	00008b93          	mv	s7,ra
 384:	00008c13          	mv	s8,ra
 388:	00008c93          	mv	s9,ra
 38c:	00008d13          	mv	s10,ra
 390:	00008d93          	mv	s11,ra
 394:	00008e13          	mv	t3,ra
 398:	00008e93          	mv	t4,ra
 39c:	00008f13          	mv	t5,ra
 3a0:	00008f93          	mv	t6,ra
 3a4:	00100117          	auipc	sp,0x100
 3a8:	c5c10113          	addi	sp,sp,-932 # 100000 <_stack_start>

000003ac <_start>:
 3ac:	4c800d13          	li	s10,1224
 3b0:	4d800d93          	li	s11,1240
 3b4:	01bd5863          	bge	s10,s11,3c4 <main_entry>

000003b8 <zero_loop>:
 3b8:	000d2023          	sw	zero,0(s10)
 3bc:	004d0d13          	addi	s10,s10,4
 3c0:	ffaddce3          	bge	s11,s10,3b8 <zero_loop>

000003c4 <main_entry>:
 3c4:	00000513          	li	a0,0
 3c8:	00000593          	li	a1,0
 3cc:	01c000ef          	jal	ra,3e8 <main>
 3d0:	002002b7          	lui	t0,0x200
 3d4:	00828293          	addi	t0,t0,8 # 200008 <_stack_start+0x100008>
 3d8:	00100313          	li	t1,1
 3dc:	0062a023          	sw	t1,0(t0)

000003e0 <sleep_loop>:
 3e0:	10500073          	wfi
 3e4:	ffdff06f          	j	3e0 <sleep_loop>

000003e8 <main>:
 3e8:	ff010113          	addi	sp,sp,-16
 3ec:	00000517          	auipc	a0,0x0
 3f0:	0b050513          	addi	a0,a0,176 # 49c <main+0xb4>
 3f4:	00112623          	sw	ra,12(sp)
 3f8:	c9dff0ef          	jal	ra,94 <put_str>
 3fc:	deadc537          	lui	a0,0xdeadc
 400:	eef50513          	addi	a0,a0,-273 # deadbeef <_stack_start+0xde9dbeef>
 404:	cb1ff0ef          	jal	ra,b4 <put_hex>
 408:	00a00513          	li	a0,10
 40c:	c79ff0ef          	jal	ra,84 <put_char>
 410:	baadf537          	lui	a0,0xbaadf
 414:	00d50513          	addi	a0,a0,13 # baadf00d <_stack_start+0xba9df00d>
 418:	c9dff0ef          	jal	ra,b4 <put_hex>
 41c:	00a00513          	li	a0,10
 420:	c65ff0ef          	jal	ra,84 <put_char>
 424:	00031537          	lui	a0,0x31
 428:	d4050513          	addi	a0,a0,-704 # 30d40 <_stack_len+0x28d40>
 42c:	00000593          	li	a1,0
 430:	e71ff0ef          	jal	ra,2a0 <timer_enable>
 434:	00000517          	auipc	a0,0x0
 438:	08050513          	addi	a0,a0,128 # 4b4 <main+0xcc>
 43c:	c59ff0ef          	jal	ra,94 <put_str>
 440:	0000006f          	j	440 <main+0x58>
